; Function Attrs: mustprogress uwtable
define void @_ZN8QuantLib22MakeFdCIRVanillaEngineC2EN5boost10shared_ptrINS_23CoxIngersollRossProcessEEENS2_INS_30GeneralizedBlackScholesProcessEEEd(ptr noundef nonnull align 8 dereferenceable(128) %this, ptr nocapture noundef %cirProcess, ptr nocapture noundef %bsProcess, double noundef %rho) unnamed_addr #8 align 2 personality ptr @__gxx_personality_v0 {
entry:
  %ref.tmp = alloca %"struct.QuantLib::FdmSchemeDesc", align 8
  %0 = load ptr, ptr %cirProcess, align 8, !tbaa !41
  store ptr %0, ptr %this, align 8, !tbaa !41
  %pn.i = getelementptr inbounds nuw i8, ptr %this, i64 8
  %pn3.i = getelementptr inbounds nuw i8, ptr %cirProcess, i64 8
  %1 = load ptr, ptr %pn3.i, align 8, !tbaa !37
  store ptr %1, ptr %pn.i, align 8, !tbaa !37
  tail call void @llvm.memset.p0.i64(ptr noundef nonnull align 8 dereferenceable(16) %cirProcess, i8 0, i64 16, i1 false)
  %bsProcess_ = getelementptr inbounds nuw i8, ptr %this, i64 16
  %2 = load ptr, ptr %bsProcess, align 8, !tbaa !39
  store ptr %2, ptr %bsProcess_, align 8, !tbaa !39
  %pn.i1 = getelementptr inbounds nuw i8, ptr %this, i64 24
  %pn3.i2 = getelementptr inbounds nuw i8, ptr %bsProcess, i64 8
  %3 = load ptr, ptr %pn3.i2, align 8, !tbaa !37
  store ptr %3, ptr %pn.i1, align 8, !tbaa !37
  tail call void @llvm.memset.p0.i64(ptr noundef nonnull align 8 dereferenceable(16) %bsProcess, i8 0, i64 16, i1 false)
  %dividends_ = getelementptr inbounds nuw i8, ptr %this, i64 32
  tail call void @llvm.memset.p0.i64(ptr noundef nonnull align 8 dereferenceable(24) %dividends_, i8 0, i64 24, i1 false)
  %rho_ = getelementptr inbounds nuw i8, ptr %this, i64 56
  store double %rho, ptr %rho_, align 8, !tbaa !161
  %tGrid_ = getelementptr inbounds nuw i8, ptr %this, i64 64
  store i64 10, ptr %tGrid_, align 8, !tbaa !164
  %xGrid_ = getelementptr inbounds nuw i8, ptr %this, i64 72
  store i64 100, ptr %xGrid_, align 8, !tbaa !165
  %rGrid_ = getelementptr inbounds nuw i8, ptr %this, i64 80
  store i64 100, ptr %rGrid_, align 8, !tbaa !166
  %dampingSteps_ = getelementptr inbounds nuw i8, ptr %this, i64 88
  store i64 0, ptr %dampingSteps_, align 8, !tbaa !167
  call void @llvm.lifetime.start.p0(i64 24, ptr nonnull %ref.tmp) #25
  invoke void @_ZN8QuantLib13FdmSchemeDesc19ModifiedHundsdorferEv(ptr dead_on_unwind nonnull writable sret(%"struct.QuantLib::FdmSchemeDesc") align 8 %ref.tmp)
          to label %invoke.cont unwind label %lpad

invoke.cont:                                      ; preds = %entry
  %schemeDesc_ = getelementptr inbounds nuw i8, ptr %this, i64 96
  invoke void @_ZN5boost11make_sharedIN8QuantLib13FdmSchemeDescEJS2_EEENS_6detail15sp_if_not_arrayIT_E4typeEDpOT0_(ptr dead_on_unwind nonnull writable sret(%"class.boost::shared_ptr.81") align 8 %schemeDesc_, ptr noundef nonnull align 8 dereferenceable(24) %ref.tmp)
          to label %invoke.cont2 unwind label %lpad

invoke.cont2:                                     ; preds = %invoke.cont
  call void @llvm.lifetime.end.p0(i64 24, ptr nonnull %ref.tmp) #25
  %quantoHelper_ = getelementptr inbounds nuw i8, ptr %this, i64 112
  call void @llvm.memset.p0.i64(ptr noundef nonnull align 8 dereferenceable(16) %quantoHelper_, i8 0, i64 16, i1 false)
  ret void

lpad:                                             ; preds = %invoke.cont, %entry
  %4 = landingpad { ptr, i32 }
          cleanup
  call void @llvm.lifetime.end.p0(i64 24, ptr nonnull %ref.tmp) #25
  call void @_ZNSt6vectorIN5boost10shared_ptrIN8QuantLib8DividendEEESaIS4_EED2Ev(ptr noundef nonnull align 8 dereferenceable(24) %dividends_) #25
  call void @_ZN5boost10shared_ptrIN8QuantLib30GeneralizedBlackScholesProcessEED2Ev(ptr noundef nonnull align 8 dereferenceable(16) %bsProcess_) #25
  call void @_ZN5boost10shared_ptrIN8QuantLib23CoxIngersollRossProcessEED2Ev(ptr noundef nonnull align 8 dereferenceable(16) %this) #25
  resume { ptr, i32 } %4
}